target datalayout = "e-m:e-p270:32:32-p271:32:32-p272:64:64-i64:64-i128:128-f80:128-n8:16:32:64-S128"
target triple = "x86_64-pc-linux-gnu"

%struct.reftable_buf = type { i64, i64, ptr }
%struct.reftable_block = type { ptr, i64, %struct.reftable_block_source }
%struct.reftable_block_source = type { ptr, ptr }
%struct.block_reader = type { i32, %struct.reftable_block, i32, ptr, ptr, i64, i32, ptr, i16, i32 }
%struct.block_iter = type { i32, ptr, i64, i32, %struct.reftable_buf, %struct.reftable_buf }

; Function Attrs: nounwind uwtable
define dso_local void @block_iter_seek_start(ptr noundef %0, ptr noundef %1) #0 {
  %3 = alloca ptr, align 8
  %4 = alloca ptr, align 8
  store ptr %0, ptr %3, align 8, !tbaa !91
  store ptr %1, ptr %4, align 8, !tbaa !61
  %5 = load ptr, ptr %4, align 8, !tbaa !61
  %6 = getelementptr inbounds nuw %struct.block_reader, ptr %5, i32 0, i32 1
  %7 = getelementptr inbounds nuw %struct.reftable_block, ptr %6, i32 0, i32 0
  %8 = load ptr, ptr %7, align 8, !tbaa !90
  %9 = load ptr, ptr %3, align 8, !tbaa !91
  %10 = getelementptr inbounds nuw %struct.block_iter, ptr %9, i32 0, i32 1
  store ptr %8, ptr %10, align 8, !tbaa !93
  %11 = load ptr, ptr %4, align 8, !tbaa !61
  %12 = getelementptr inbounds nuw %struct.block_reader, ptr %11, i32 0, i32 6
  %13 = load i32, ptr %12, align 8, !tbaa !78
  %14 = zext i32 %13 to i64
  %15 = load ptr, ptr %3, align 8, !tbaa !91
  %16 = getelementptr inbounds nuw %struct.block_iter, ptr %15, i32 0, i32 2
  store i64 %14, ptr %16, align 8, !tbaa !95
  %17 = load ptr, ptr %4, align 8, !tbaa !61
  %18 = getelementptr inbounds nuw %struct.block_reader, ptr %17, i32 0, i32 2
  %19 = load i32, ptr %18, align 8, !tbaa !77
  %20 = load ptr, ptr %3, align 8, !tbaa !91
  %21 = getelementptr inbounds nuw %struct.block_iter, ptr %20, i32 0, i32 3
  store i32 %19, ptr %21, align 8, !tbaa !96
  %22 = load ptr, ptr %3, align 8, !tbaa !91
  %23 = getelementptr inbounds nuw %struct.block_iter, ptr %22, i32 0, i32 4
  call void @reftable_buf_reset(ptr noundef %23)
  %24 = load ptr, ptr %4, align 8, !tbaa !61
  %25 = getelementptr inbounds nuw %struct.block_reader, ptr %24, i32 0, i32 0
  %26 = load i32, ptr %25, align 8, !tbaa !80
  %27 = add i32 %26, 4
  %28 = load ptr, ptr %3, align 8, !tbaa !91
  %29 = getelementptr inbounds nuw %struct.block_iter, ptr %28, i32 0, i32 0
  store i32 %27, ptr %29, align 8, !tbaa !97
  ret void
}