; Function Attrs: nounwind uwtable
define dso_local void @block_iter_seek_start(ptr noundef initializes((8, 28)) %0, ptr noundef readonly captures(none) %1) local_unnamed_addr #2 {
  %3 = getelementptr inbounds nuw i8, ptr %1, i64 8
  %4 = load ptr, ptr %3, align 8, !tbaa !66
  %5 = getelementptr inbounds nuw i8, ptr %0, i64 8
  store ptr %4, ptr %5, align 8, !tbaa !67
  %6 = getelementptr inbounds nuw i8, ptr %1, i64 72
  %7 = load i32, ptr %6, align 8, !tbaa !61
  %8 = zext i32 %7 to i64
  %9 = getelementptr inbounds nuw i8, ptr %0, i64 16
  store i64 %8, ptr %9, align 8, !tbaa !69
  %10 = getelementptr inbounds nuw i8, ptr %1, i64 40
  %11 = load i32, ptr %10, align 8, !tbaa !60
  %12 = getelementptr inbounds nuw i8, ptr %0, i64 24
  store i32 %11, ptr %12, align 8, !tbaa !70
  %13 = getelementptr inbounds nuw i8, ptr %0, i64 32
  tail call void @reftable_buf_reset(ptr noundef nonnull %13) #11
  %14 = load i32, ptr %1, align 8, !tbaa !63
  %15 = add i32 %14, 4
  store i32 %15, ptr %0, align 8, !tbaa !71
  ret void
}